Certificate:
    Data:
        Version: 3 (0x2)
        Serial Number: 1 (0x1)
        Signature Algorithm: sha256WithRSAEncryption
        Issuer: DC=com, DC=steptools, O=Step Tools Inc, OU=Step Tools CA, CN=Step Tools Inc
        Validity
            Not Before: Jun  9 18:00:05 2014 GMT
            Not After : Jun  8 18:00:05 2024 GMT
        Subject: DC=com, DC=steptools, O=Step Tools Inc, OU=Step Tools CA, CN=Step Tools Inc
        Subject Public Key Info:
            Public Key Algorithm: rsaEncryption
                Public-Key: (2048 bit)
                Modulus:
                    00:e5:58:90:21:aa:25:d4:e4:ed:94:d4:d7:cc:50:
                    73:22:bf:f2:99:8a:99:fe:3e:82:44:2f:d0:9f:19:
                    d5:3c:5f:51:7d:66:7b:71:e2:63:17:4f:5a:7f:49:
                    3b:16:c4:6c:35:9c:ea:f0:5c:69:22:6d:60:f6:52:
                    c5:4c:f7:dd:0b:95:d7:c3:7b:db:4e:80:9f:40:86:
                    ef:ac:ee:f7:fe:a5:47:2d:62:c2:65:3e:00:4d:92:
                    bf:07:81:dd:34:8d:dd:f9:98:bf:c0:6b:4c:8d:1c:
                    9b:c3:f9:07:e0:c7:3e:ee:51:93:da:67:e3:b6:e9:
                    04:85:01:fa:6f:8a:a9:b2:32:f5:ee:43:ae:0a:aa:
                    7a:3f:9c:63:35:42:98:2f:74:37:33:ab:25:eb:2b:
                    1c:33:ad:bf:8e:30:cb:b7:7a:d7:47:9a:6e:00:e2:
                    6c:20:93:fa:0a:82:65:5c:f8:5e:2c:f9:b4:88:d4:
                    38:87:6a:3c:6b:da:2e:75:35:c2:5e:c4:aa:5d:61:
                    50:7b:04:95:24:90:ec:8f:83:63:02:3d:b3:24:fa:
                    a3:37:8e:b3:0a:27:eb:3d:11:99:5e:66:75:d5:f1:
                    86:21:c4:4a:d1:66:ca:46:65:90:6d:6f:e7:6b:d8:
                    a5:0c:34:98:92:5c:cf:82:e5:15:a3:03:9d:7b:4b:
                    7e:af
                Exponent: 65537 (0x10001)
        X509v3 extensions:
            X509v3 Key Usage: critical
                Certificate Sign, CRL Sign
            X509v3 Basic Constraints: critical
                CA:TRUE
            X509v3 Subject Key Identifier: 
                59:AD:AE:0F:89:33:D7:3E:A1:EB:87:C0:6C:7D:8E:D3:95:CF:B3:85
            X509v3 Authority Key Identifier: 
                keyid:59:AD:AE:0F:89:33:D7:3E:A1:EB:87:C0:6C:7D:8E:D3:95:CF:B3:85

    Signature Algorithm: sha256WithRSAEncryption
        12:a0:74:8d:d7:22:2a:5e:b9:25:d8:5f:81:96:ae:ba:f0:51:
        db:16:eb:09:17:f3:52:9f:a1:89:ea:ad:8e:0d:87:2b:bd:02:
        44:4a:5a:88:13:e0:b8:f7:6e:a3:6c:57:bb:89:d3:4d:13:3f:
        2d:59:72:fc:4e:ee:8d:6a:ae:d2:67:3d:c9:6f:96:71:1c:e0:
        f6:69:bf:3c:38:78:e9:bb:7b:5d:2e:af:03:ec:57:d4:a6:e5:
        a4:3d:90:04:73:a7:1e:06:d4:d7:03:e2:fe:ad:5f:b8:37:b2:
        a4:3d:ce:22:6d:72:14:fb:f5:95:a6:50:d3:7d:98:fb:39:39:
        c9:26:04:8a:b1:16:f0:b3:d0:30:1e:ce:09:22:32:c2:99:88:
        0f:81:fc:f3:6c:a1:67:7a:e6:36:b7:e1:a1:41:f6:2b:4c:63:
        c8:e3:d3:e8:9b:d8:aa:56:72:37:69:e1:29:66:29:8c:ad:f3:
        34:b0:dd:d2:ad:79:4c:3e:70:0d:75:8e:c5:63:1d:8b:a5:dc:
        bb:45:fa:12:6e:c5:f4:d1:8d:5c:8c:c0:bf:26:19:9d:47:3a:
        b8:8f:b7:3a:ed:0b:cb:bb:a3:93:96:a9:7a:6d:d0:1c:71:f5:
        cb:ef:e9:70:bf:1b:af:61:22:7c:fc:e7:bb:37:d1:d8:27:da:
        04:d0:5d:96
-----BEGIN CERTIFICATE-----
MIID0jCCArqgAwIBAgIBATANBgkqhkiG9w0BAQsFADB6MRMwEQYKCZImiZPyLGQB
GRYDY29tMRkwFwYKCZImiZPyLGQBGRYJc3RlcHRvb2xzMRcwFQYDVQQKDA5TdGVw
IFRvb2xzIEluYzEWMBQGA1UECwwNU3RlcCBUb29scyBDQTEXMBUGA1UEAwwOU3Rl
cCBUb29scyBJbmMwHhcNMTQwNjA5MTgwMDA1WhcNMjQwNjA4MTgwMDA1WjB6MRMw
EQYKCZImiZPyLGQBGRYDY29tMRkwFwYKCZImiZPyLGQBGRYJc3RlcHRvb2xzMRcw
FQYDVQQKDA5TdGVwIFRvb2xzIEluYzEWMBQGA1UECwwNU3RlcCBUb29scyBDQTEX
MBUGA1UEAwwOU3RlcCBUb29scyBJbmMwggEiMA0GCSqGSIb3DQEBAQUAA4IBDwAw
ggEKAoIBAQDlWJAhqiXU5O2U1NfMUHMiv/KZipn+PoJEL9CfGdU8X1F9Zntx4mMX
T1p/STsWxGw1nOrwXGkibWD2UsVM990LldfDe9tOgJ9Ahu+s7vf+pUctYsJlPgBN
kr8Hgd00jd35mL/Aa0yNHJvD+Qfgxz7uUZPaZ+O26QSFAfpviqmyMvXuQ64Kqno/
nGM1QpgvdDczqyXrKxwzrb+OMMu3etdHmm4A4mwgk/oKgmVc+F4s+bSI1DiHajxr
2i51NcJexKpdYVB7BJUkkOyPg2MCPbMk+qM3jrMKJ+s9EZleZnXV8YYhxErRZspG
ZZBtb+dr2KUMNJiSXM+C5RWjA517S36vAgMBAAGjYzBhMA4GA1UdDwEB/wQEAwIB
BjAPBgNVHRMBAf8EBTADAQH/MB0GA1UdDgQWBBRZra4PiTPXPqHrh8BsfY7Tlc+z
hTAfBgNVHSMEGDAWgBRZra4PiTPXPqHrh8BsfY7Tlc+zhTANBgkqhkiG9w0BAQsF
AAOCAQEAEqB0jdciKl65JdhfgZauuvBR2xbrCRfzUp+hieqtjg2HK70CREpaiBPg
uPduo2xXu4nTTRM/LVly/E7ujWqu0mc9yW+WcRzg9mm/PDh46bt7XS6vA+xX1Kbl
pD2QBHOnHgbU1wPi/q1fuDeypD3OIm1yFPv1laZQ032Y+zk5ySYEirEW8LPQMB7O
CSIywpmID4H882yhZ3rmNrfhoUH2K0xjyOPT6JvYqlZyN2nhKWYpjK3zNLDd0q15
TD5wDXWOxWMdi6Xcu0X6Em7F9NGNXIzAvyYZnUc6uI+3Ou0Ly7ujk5apem3QHHH1
y+/pcL8br2EifPznuzfR2CfaBNBdlg==
-----END CERTIFICATE-----
