Certificate:
    Data:
        Version: 3 (0x2)
        Serial Number: 2 (0x2)
    Signature Algorithm: sha1WithRSAEncryption
        Issuer: DC=org, DC=simple, O=Simple Inc, OU=Simple Root CA, CN=Simple Root CA
        Validity
            Not Before: May 28 15:26:14 2014 GMT
            Not After : May 27 15:26:14 2024 GMT
        Subject: DC=org, DC=simple, O=Simple Inc, OU=Simple Signing CA, CN=Simple Signing CA
        Subject Public Key Info:
            Public Key Algorithm: rsaEncryption
                Public-Key: (2048 bit)
                Modulus:
                    00:f5:07:06:1d:82:b4:00:bc:41:b1:b6:af:55:53:
                    44:3f:0d:55:37:ac:e6:c7:ea:0b:47:4f:f9:bc:82:
                    f4:51:66:6f:4c:82:e0:80:03:1e:74:e5:50:cf:06:
                    17:73:c3:73:01:70:32:3f:11:00:7d:d4:87:f3:93:
                    26:76:d4:44:00:53:cf:7b:13:39:6f:f2:77:47:b3:
                    59:c8:f4:53:ba:66:ce:58:f0:17:9b:f6:d5:be:d4:
                    19:be:e5:e8:1f:d0:af:28:5d:91:93:da:23:61:ad:
                    69:8e:96:a3:dc:92:4e:e5:5d:96:e9:fe:fc:0d:1c:
                    8e:47:35:9f:6d:89:9d:a8:a7:85:38:62:1f:fe:1c:
                    e0:e3:39:1d:5e:e2:12:2e:c8:e3:b7:62:ef:d4:7d:
                    e1:77:51:09:fe:2b:81:15:73:52:93:84:25:83:18:
                    bc:be:66:d1:fe:1c:84:14:e6:3a:7e:a2:66:88:7c:
                    35:96:3a:4e:bb:02:02:b8:c5:d3:f0:6a:a0:69:c7:
                    8c:f2:9e:21:71:ef:52:1a:ca:fc:65:eb:c3:83:bb:
                    f1:4b:aa:dc:86:10:34:dd:9f:c2:fb:d3:f5:0f:be:
                    b4:d0:1b:1f:79:69:5d:85:97:8c:95:61:72:bd:61:
                    b1:55:83:29:50:18:15:8b:c7:c6:bf:df:49:ec:0e:
                    2d:d7
                Exponent: 65537 (0x10001)
        X509v3 extensions:
            X509v3 Key Usage: critical
                Certificate Sign, CRL Sign
            X509v3 Basic Constraints: critical
                CA:TRUE, pathlen:0
            X509v3 Subject Key Identifier: 
                CE:64:B6:51:D1:4F:E6:85:C5:81:11:4D:E0:35:70:02:A9:BE:6C:09
            X509v3 Authority Key Identifier: 
                keyid:36:EE:E7:02:2A:AD:26:6E:6A:EE:FF:77:B5:EC:E3:D0:20:B7:4F:26

    Signature Algorithm: sha1WithRSAEncryption
         6d:04:4b:2b:d5:f8:1e:86:d9:a2:63:73:d9:3a:d0:51:41:38:
         24:78:23:4a:39:b1:44:02:90:40:1a:3c:7f:7f:d0:c3:23:84:
         26:cd:32:d9:a3:b8:0e:2b:19:ad:1e:1d:4c:9c:31:de:54:83:
         b3:7a:bf:f0:aa:03:3e:30:6a:90:b8:67:5f:6b:9b:92:85:70:
         4c:0e:4b:66:5e:52:6b:bb:7a:38:41:30:75:67:10:cb:d5:5c:
         63:fc:f6:d0:7e:de:a1:9e:97:fd:1b:8a:a4:28:58:81:5f:23:
         1d:db:ce:0b:19:0a:d6:12:d9:98:9b:2c:fb:8b:1b:1f:c6:a3:
         fe:dd:37:0f:c5:c2:00:cb:35:e9:51:57:14:cc:20:10:8b:16:
         56:d7:89:b3:5e:58:29:8c:6d:1b:48:ef:12:89:ed:e9:34:19:
         5e:90:26:0c:97:f7:82:8d:1c:14:e3:56:9b:d4:55:38:f0:33:
         10:73:38:3b:84:2f:70:2f:70:a1:c9:ac:6f:a0:5e:56:55:ec:
         b0:57:9e:02:f3:fd:96:6c:95:a8:15:f2:7a:77:b9:e3:ff:1c:
         e3:ad:d2:11:55:fd:bb:bf:cd:cb:b7:79:5d:5a:23:1e:79:c9:
         f7:2a:ef:2c:a3:21:db:eb:03:93:16:fe:35:fe:24:46:56:6a:
         88:56:0f:a1
-----BEGIN CERTIFICATE-----
MIIDzzCCAregAwIBAgIBAjANBgkqhkiG9w0BAQUFADB0MRMwEQYKCZImiZPyLGQB
GRYDb3JnMRYwFAYKCZImiZPyLGQBGRYGc2ltcGxlMRMwEQYDVQQKDApTaW1wbGUg
SW5jMRcwFQYDVQQLDA5TaW1wbGUgUm9vdCBDQTEXMBUGA1UEAwwOU2ltcGxlIFJv
b3QgQ0EwHhcNMTQwNTI4MTUyNjE0WhcNMjQwNTI3MTUyNjE0WjB6MRMwEQYKCZIm
iZPyLGQBGRYDb3JnMRYwFAYKCZImiZPyLGQBGRYGc2ltcGxlMRMwEQYDVQQKDApT
aW1wbGUgSW5jMRowGAYDVQQLDBFTaW1wbGUgU2lnbmluZyBDQTEaMBgGA1UEAwwR
U2ltcGxlIFNpZ25pbmcgQ0EwggEiMA0GCSqGSIb3DQEBAQUAA4IBDwAwggEKAoIB
AQD1BwYdgrQAvEGxtq9VU0Q/DVU3rObH6gtHT/m8gvRRZm9MguCAAx505VDPBhdz
w3MBcDI/EQB91IfzkyZ21EQAU897Ezlv8ndHs1nI9FO6Zs5Y8Beb9tW+1Bm+5egf
0K8oXZGT2iNhrWmOlqPckk7lXZbp/vwNHI5HNZ9tiZ2op4U4Yh/+HODjOR1e4hIu
yOO3Yu/UfeF3UQn+K4EVc1KThCWDGLy+ZtH+HIQU5jp+omaIfDWWOk67AgK4xdPw
aqBpx4zyniFx71Iayvxl68ODu/FLqtyGEDTdn8L70/UPvrTQGx95aV2Fl4yVYXK9
YbFVgylQGBWLx8a/30nsDi3XAgMBAAGjZjBkMA4GA1UdDwEB/wQEAwIBBjASBgNV
HRMBAf8ECDAGAQH/AgEAMB0GA1UdDgQWBBTOZLZR0U/mhcWBEU3gNXACqb5sCTAf
BgNVHSMEGDAWgBQ27ucCKq0mbmru/3e17OPQILdPJjANBgkqhkiG9w0BAQUFAAOC
AQEAbQRLK9X4HobZomNz2TrQUUE4JHgjSjmxRAKQQBo8f3/QwyOEJs0y2aO4DisZ
rR4dTJwx3lSDs3q/8KoDPjBqkLhnX2ubkoVwTA5LZl5Sa7t6OEEwdWcQy9VcY/z2
0H7eoZ6X/RuKpChYgV8jHdvOCxkK1hLZmJss+4sbH8aj/t03D8XCAMs16VFXFMwg
EIsWVteJs15YKYxtG0jvEont6TQZXpAmDJf3go0cFONWm9RVOPAzEHM4O4QvcC9w
ocmsb6BeVlXssFeeAvP9lmyVqBXyene54/8c463SEVX9u7/Ny7d5XVojHnnJ9yrv
LKMh2+sDkxb+Nf4kRlZqiFYPoQ==
-----END CERTIFICATE-----
