Certificate:
    Data:
        Version: 3 (0x2)
        Serial Number: 1 (0x1)
    Signature Algorithm: sha1WithRSAEncryption
        Issuer: DC=org, DC=simple, O=Simple Inc, OU=Simple Root CA, CN=Simple Root CA
        Validity
            Not Before: May 28 15:17:12 2014 GMT
            Not After : May 27 15:17:12 2024 GMT
        Subject: DC=org, DC=simple, O=Simple Inc, OU=Simple Root CA, CN=Simple Root CA
        Subject Public Key Info:
            Public Key Algorithm: rsaEncryption
                Public-Key: (2048 bit)
                Modulus:
                    00:cc:04:41:0b:e1:61:da:bc:37:63:3b:cb:a3:2a:
                    13:72:47:01:72:ef:79:3d:3d:f0:15:d9:82:be:6c:
                    44:9a:9f:19:4f:6f:6b:75:04:fb:55:ba:cd:7d:f0:
                    70:a3:ee:80:73:71:57:5a:55:af:af:0a:30:4a:01:
                    17:ca:20:e6:8d:b0:b8:d6:96:68:19:88:76:99:83:
                    6e:90:95:5a:00:5a:6d:a4:48:ca:b2:df:43:19:b6:
                    b8:bb:06:44:d7:ab:86:88:34:7f:e8:1d:10:53:39:
                    ac:45:8c:53:58:5b:65:1c:72:41:32:4b:da:44:c5:
                    01:81:7b:9a:02:45:d0:f8:b7:07:6c:04:1f:10:cf:
                    8e:00:0d:ac:94:c7:ed:5f:9e:9d:5a:48:9c:ae:c4:
                    24:8c:c3:86:03:c7:fb:0c:8c:b7:a2:29:68:dc:39:
                    32:8e:39:cd:ee:f6:91:1f:c6:0c:fc:87:0e:fc:8a:
                    e8:0b:ef:72:76:27:73:ae:65:0e:d2:bf:c3:4e:a3:
                    38:0f:a7:93:dd:e4:f4:3e:4d:12:a5:87:14:ff:12:
                    7b:2d:ba:a2:cd:90:a6:5f:86:06:dc:d8:75:d5:c8:
                    c7:00:39:d5:84:83:6f:94:45:f8:f8:7a:aa:aa:d6:
                    f6:e9:81:3d:3b:ba:c3:80:cc:b8:a2:f8:be:21:47:
                    6b:37
                Exponent: 65537 (0x10001)
        X509v3 extensions:
            X509v3 Key Usage: critical
                Certificate Sign, CRL Sign
            X509v3 Basic Constraints: critical
                CA:TRUE
            X509v3 Subject Key Identifier: 
                36:EE:E7:02:2A:AD:26:6E:6A:EE:FF:77:B5:EC:E3:D0:20:B7:4F:26
            X509v3 Authority Key Identifier: 
                keyid:36:EE:E7:02:2A:AD:26:6E:6A:EE:FF:77:B5:EC:E3:D0:20:B7:4F:26

    Signature Algorithm: sha1WithRSAEncryption
         6f:60:3e:a5:3f:d9:71:0a:67:dd:8d:0c:75:fa:e2:3d:3a:12:
         6e:47:d4:18:fe:85:02:dd:b4:af:ec:55:d4:fc:35:e2:14:e8:
         39:10:74:4f:04:22:85:92:9d:eb:39:e6:35:8a:7b:24:64:ba:
         5a:4a:e9:e5:19:ea:99:f2:36:58:f6:3a:a4:4c:81:c1:1b:b8:
         27:b0:95:cb:f9:15:aa:99:cc:a9:b1:e5:fe:fa:c1:29:02:88:
         77:83:c3:86:12:38:e2:9e:3c:5f:93:d6:91:a4:1b:fe:2e:1d:
         37:0d:6f:4a:7c:6a:a8:bb:b1:82:ba:d1:8d:1c:2e:6c:23:d6:
         cd:b4:0d:8d:ee:62:2d:b0:ce:e9:01:0f:77:a5:f2:b7:20:6f:
         39:a8:17:79:eb:e3:76:83:63:7b:9d:0a:24:19:5c:1b:c0:ef:
         13:9f:73:00:06:2f:f5:7a:62:fb:d2:97:20:e1:94:7a:1d:8f:
         46:ae:9d:04:9c:07:e1:fd:7b:27:b8:17:87:06:fa:b4:e9:a5:
         12:1d:74:8a:b8:d5:bd:c4:d5:8b:80:b9:f4:13:21:23:c8:94:
         89:ff:24:09:1d:6c:6c:50:7c:88:17:49:c9:83:b7:9a:93:23:
         fe:c2:92:11:05:36:ea:b2:1d:2d:b4:5e:e0:d6:f5:80:1d:b7:
         d1:76:9d:78
-----BEGIN CERTIFICATE-----
MIIDxjCCAq6gAwIBAgIBATANBgkqhkiG9w0BAQUFADB0MRMwEQYKCZImiZPyLGQB
GRYDb3JnMRYwFAYKCZImiZPyLGQBGRYGc2ltcGxlMRMwEQYDVQQKDApTaW1wbGUg
SW5jMRcwFQYDVQQLDA5TaW1wbGUgUm9vdCBDQTEXMBUGA1UEAwwOU2ltcGxlIFJv
b3QgQ0EwHhcNMTQwNTI4MTUxNzEyWhcNMjQwNTI3MTUxNzEyWjB0MRMwEQYKCZIm
iZPyLGQBGRYDb3JnMRYwFAYKCZImiZPyLGQBGRYGc2ltcGxlMRMwEQYDVQQKDApT
aW1wbGUgSW5jMRcwFQYDVQQLDA5TaW1wbGUgUm9vdCBDQTEXMBUGA1UEAwwOU2lt
cGxlIFJvb3QgQ0EwggEiMA0GCSqGSIb3DQEBAQUAA4IBDwAwggEKAoIBAQDMBEEL
4WHavDdjO8ujKhNyRwFy73k9PfAV2YK+bESanxlPb2t1BPtVus198HCj7oBzcVda
Va+vCjBKARfKIOaNsLjWlmgZiHaZg26QlVoAWm2kSMqy30MZtri7BkTXq4aINH/o
HRBTOaxFjFNYW2UcckEyS9pExQGBe5oCRdD4twdsBB8Qz44ADayUx+1fnp1aSJyu
xCSMw4YDx/sMjLeiKWjcOTKOOc3u9pEfxgz8hw78iugL73J2J3OuZQ7Sv8NOozgP
p5Pd5PQ+TRKlhxT/EnstuqLNkKZfhgbc2HXVyMcAOdWEg2+URfj4eqqq1vbpgT07
usOAzLii+L4hR2s3AgMBAAGjYzBhMA4GA1UdDwEB/wQEAwIBBjAPBgNVHRMBAf8E
BTADAQH/MB0GA1UdDgQWBBQ27ucCKq0mbmru/3e17OPQILdPJjAfBgNVHSMEGDAW
gBQ27ucCKq0mbmru/3e17OPQILdPJjANBgkqhkiG9w0BAQUFAAOCAQEAb2A+pT/Z
cQpn3Y0MdfriPToSbkfUGP6FAt20r+xV1Pw14hToORB0TwQihZKd6znmNYp7JGS6
Wkrp5RnqmfI2WPY6pEyBwRu4J7CVy/kVqpnMqbHl/vrBKQKId4PDhhI44p48X5PW
kaQb/i4dNw1vSnxqqLuxgrrRjRwubCPWzbQNje5iLbDO6QEPd6XytyBvOagXeevj
doNje50KJBlcG8DvE59zAAYv9Xpi+9KXIOGUeh2PRq6dBJwH4f17J7gXhwb6tOml
Eh10irjVvcTVi4C59BMhI8iUif8kCR1sbFB8iBdJyYO3mpMj/sKSEQU26rIdLbRe
4Nb1gB230XadeA==
-----END CERTIFICATE-----
